Certificate:
    Data:
        Version: 3 (0x2)
        Serial Number: 4111 (0x100f)
        Signature Algorithm: sha256WithRSAEncryption
        Issuer: C=GB, ST=Rutland, L=Oakham, O=chrl, CN=charlie-nixlt/emailAddress=c@chrl.uk
        Validity
            Not Before: Sep 13 13:50:10 2024 GMT
            Not After : Sep 27 13:50:10 2025 GMT
        Subject: C=GB, ST=Rutland, O=chrl, CN=charlie-rpiz2w/emailAddress=c@chrl.uk
        Subject Public Key Info:
            Public Key Algorithm: rsaEncryption
                Public-Key: (2048 bit)
                Modulus:
                    00:db:3e:75:08:ba:96:9c:23:70:b5:6d:7a:02:07:
                    47:b0:e8:ae:ae:df:5e:ae:74:95:3c:f8:cb:53:5d:
                    af:9a:87:a3:66:eb:a2:6a:73:26:a8:66:ae:50:01:
                    4b:4a:64:f3:f5:7e:6c:1c:80:06:4d:bf:89:81:b6:
                    fd:e9:86:9b:b9:e2:54:6a:98:c1:34:00:f9:58:d4:
                    40:3b:41:d5:60:9c:5d:d0:92:99:28:ac:37:21:ac:
                    5b:1a:23:c4:ab:ef:99:e4:5b:5e:fd:ce:45:fb:24:
                    74:e4:69:a0:d4:93:33:eb:f2:3a:9f:66:3c:ac:50:
                    a6:79:8b:43:63:e0:3c:50:f0:e7:ee:74:ba:e1:b5:
                    f6:c8:c1:71:ed:68:51:a8:14:fb:aa:01:fb:9e:e0:
                    47:72:8f:79:81:d8:19:2e:8c:b4:00:86:98:78:eb:
                    e7:18:c2:5c:9f:22:c5:65:00:68:3a:e8:d8:62:e4:
                    13:07:1b:e3:08:92:f4:b9:3e:74:63:f2:71:2f:bd:
                    42:78:a2:d9:26:1e:d1:53:c3:b7:57:37:35:45:c8:
                    fa:55:a3:b2:30:7a:b0:50:62:e5:74:6e:d1:dd:d7:
                    70:f9:a7:c2:74:bd:4b:01:de:ce:88:b6:f0:1a:58:
                    9b:eb:37:89:d8:15:54:a5:61:8e:b9:85:83:19:ef:
                    b9:47
                Exponent: 65537 (0x10001)
        X509v3 extensions:
            X509v3 Basic Constraints: 
                CA:FALSE
            X509v3 Key Usage: 
                Digital Signature, Key Encipherment
            X509v3 Extended Key Usage: 
                TLS Web Server Authentication
            X509v3 Subject Alternative Name: 
                DNS:charlie-rpiz2w
            X509v3 Subject Key Identifier: 
                D5:40:98:3E:63:65:AF:CB:24:3C:31:BA:2D:32:56:92:57:3C:3B:8D
            X509v3 Authority Key Identifier: 
                0C:07:6B:72:3B:C8:DE:FF:99:6E:15:C5:52:A2:15:A8:99:C2:44:48
    Signature Algorithm: sha256WithRSAEncryption
    Signature Value:
        7d:6d:4b:c4:49:83:d8:b8:e3:4e:47:a0:55:ad:8c:00:69:44:
        2c:de:48:bf:f4:1e:4e:7c:ba:a7:67:b7:f6:1e:95:96:f5:88:
        c3:e2:51:e4:31:68:38:3f:cd:f2:c6:24:68:f7:e1:a3:56:f4:
        09:75:68:b0:ff:6d:b6:9d:f5:67:72:a0:1b:8f:8d:d2:bc:45:
        c8:99:70:b0:a8:69:ed:0a:bc:a5:cd:bf:9b:4c:55:a3:6c:b0:
        72:84:63:70:b3:5d:1f:4b:5f:70:fa:25:61:ae:d6:b0:42:40:
        a3:a6:cb:8e:bd:99:33:44:d2:41:ad:cb:72:8f:c9:9d:45:37:
        1d:ce:a8:6d:5e:5d:4e:8a:fe:11:b9:c8:7f:d8:88:88:38:6b:
        dd:53:dd:fb:1a:90:b5:81:3c:2e:a7:ed:af:d2:c8:72:11:c1:
        13:2c:7d:62:7e:2b:1e:7b:eb:dc:c9:b9:ea:e0:99:72:32:1e:
        e9:45:e7:3f:25:43:54:fe:a5:bc:cd:45:2b:fa:81:cc:fb:69:
        21:c0:57:ba:52:8a:bd:f1:e2:6f:3a:58:fe:59:4d:97:6b:75:
        0d:fe:0b:48:9d:96:a1:a8:a1:5d:02:82:c8:2c:fc:5c:59:08:
        04:71:20:c4:09:3e:36:f9:cb:79:52:17:d5:35:0a:4b:08:66:
        37:d3:b2:72:0e:9c:c5:95:0d:ef:d1:11:8d:73:17:f5:e6:f3:
        77:45:79:ac:a8:9c:57:d3:22:8d:77:a0:02:75:1f:41:ac:2f:
        7d:d0:96:60:ac:6b:67:6f:41:2b:b4:0c:b0:3a:f4:82:c3:9a:
        c6:a2:2d:13:58:da:bf:0a:72:51:4c:00:0f:e0:f0:78:bc:0a:
        38:56:25:47:aa:37:6e:93:41:09:df:19:1f:8e:17:d6:61:75:
        c0:f1:00:71:77:48:01:bb:45:6c:5f:53:89:1f:35:e1:58:f2:
        aa:de:7b:2b:b9:ba:0a:cd:36:c0:94:1e:1a:ab:26:54:93:c6:
        0e:92:7f:e3:31:bf:c8:04:75:6f:3f:56:b1:9b:8f:3a:70:26:
        0c:1e:d1:af:bd:fe:da:6a:a4:fa:73:9e:6a:fd:d1:6b:d9:26:
        cb:90:e5:5c:36:28:0d:25:e3:ad:e7:d5:94:bf:62:73:ca:20:
        ed:90:f6:ee:d6:91:5f:86:7c:d6:30:34:d4:38:66:0c:ad:00:
        a9:83:e6:07:b0:ae:b1:a8:55:e2:4c:cf:7f:1a:18:8b:d0:8d:
        73:2c:63:dd:6b:97:eb:6a:74:06:c9:bd:64:44:e3:21:7d:b5:
        e0:9e:b1:bf:34:8c:64:70:03:2b:c4:2d:11:fe:66:b1:64:49:
        d7:9f:6a:60:7c:d2:ca:6a
-----BEGIN CERTIFICATE-----
MIIE2jCCAsKgAwIBAgICEA8wDQYJKoZIhvcNAQELBQAwcTELMAkGA1UEBhMCR0Ix
EDAOBgNVBAgMB1J1dGxhbmQxDzANBgNVBAcMBk9ha2hhbTENMAsGA1UECgwEY2hy
bDEWMBQGA1UEAwwNY2hhcmxpZS1uaXhsdDEYMBYGCSqGSIb3DQEJARYJY0BjaHJs
LnVrMB4XDTI0MDkxMzEzNTAxMFoXDTI1MDkyNzEzNTAxMFowYTELMAkGA1UEBhMC
R0IxEDAOBgNVBAgMB1J1dGxhbmQxDTALBgNVBAoMBGNocmwxFzAVBgNVBAMMDmNo
YXJsaWUtcnBpejJ3MRgwFgYJKoZIhvcNAQkBFgljQGNocmwudWswggEiMA0GCSqG
SIb3DQEBAQUAA4IBDwAwggEKAoIBAQDbPnUIupacI3C1bXoCB0ew6K6u316udJU8
+MtTXa+ah6Nm66JqcyaoZq5QAUtKZPP1fmwcgAZNv4mBtv3phpu54lRqmME0APlY
1EA7QdVgnF3QkpkorDchrFsaI8Sr75nkW179zkX7JHTkaaDUkzPr8jqfZjysUKZ5
i0Nj4DxQ8OfudLrhtfbIwXHtaFGoFPuqAfue4Edyj3mB2BkujLQAhph46+cYwlyf
IsVlAGg66Nhi5BMHG+MIkvS5PnRj8nEvvUJ4otkmHtFTw7dXNzVFyPpVo7IwerBQ
YuV0btHd13D5p8J0vUsB3s6ItvAaWJvrN4nYFVSlYY65hYMZ77lHAgMBAAGjgYsw
gYgwCQYDVR0TBAIwADALBgNVHQ8EBAMCBaAwEwYDVR0lBAwwCgYIKwYBBQUHAwEw
GQYDVR0RBBIwEIIOY2hhcmxpZS1ycGl6MncwHQYDVR0OBBYEFNVAmD5jZa/LJDwx
ui0yVpJXPDuNMB8GA1UdIwQYMBaAFAwHa3I7yN7/mW4VxVKiFaiZwkRIMA0GCSqG
SIb3DQEBCwUAA4ICAQB9bUvESYPYuONOR6BVrYwAaUQs3ki/9B5OfLqnZ7f2HpWW
9YjD4lHkMWg4P83yxiRo9+GjVvQJdWiw/222nfVncqAbj43SvEXImXCwqGntCryl
zb+bTFWjbLByhGNws10fS19w+iVhrtawQkCjpsuOvZkzRNJBrctyj8mdRTcdzqht
Xl1Oiv4Ruch/2IiIOGvdU937GpC1gTwup+2v0shyEcETLH1ifisee+vcybnq4Jly
Mh7pRec/JUNU/qW8zUUr+oHM+2khwFe6Uoq98eJvOlj+WU2Xa3UN/gtInZahqKFd
AoLILPxcWQgEcSDECT42+ct5UhfVNQpLCGY307JyDpzFlQ3v0RGNcxf15vN3RXms
qJxX0yKNd6ACdR9BrC990JZgrGtnb0ErtAywOvSCw5rGoi0TWNq/CnJRTAAP4PB4
vAo4ViVHqjduk0EJ3xkfjhfWYXXA8QBxd0gBu0VsX1OJHzXhWPKq3nsruboKzTbA
lB4aqyZUk8YOkn/jMb/IBHVvP1axm486cCYMHtGvvf7aaqT6c55q/dFr2SbLkOVc
NigNJeOt59WUv2JzyiDtkPbu1pFfhnzWMDTUOGYMrQCpg+YHsK6xqFXiTM9/GhiL
0I1zLGPda5franQGyb1kROMhfbXgnrG/NIxkcAMrxC0R/maxZEnXn2pgfNLKag==
-----END CERTIFICATE-----
